(lp0
(ianalysis.analysis
Analysis
p1
(dp2
S'status'
p3
S'finished'
p4
sS'chosenSc'
p5
NsS'candidateScList'
p6
(lp7
sS'computationParameters'
p8
S'a:pl'
p9
sS'histParamsFixed'
p10
NsS'aParams'
p11
NsS'logreg'
p12
NsS'sumStatsConfDico'
p13
(dp14
sS'condTxtList'
p15
(lp16
sS'category'
p17
S'pre-ev'
p18
sS'name'
p19
S'Priors'
p20
sS'mutationModelFixed'
p21
S''
p22
sS'sumStatsTHDico'
p23
(dp24
sS'fda'
p25
NsS'params'
p26
S' PCA and Locate S.S.'
p27
sS'histParamsDrawn'
p28
NsS'drawn'
p29
NsS'mutationModelDrawn'
p30
g22
sba(ianalysis.analysis
Analysis
p31
(dp32
g3
g4
sg5
Nsg6
(lp33
I1
asg8
S's:1;n:1000000;m:10000;t:2;p:o'
p34
sg10
Nsg11
Nsg12
Nsg13
(dp35
sg15
(lp36
sg17
S'estimate'
p37
sg19
S'Posteriors'
p38
sg21
g22
sg23
(dp39
sg25
Nsg26
g22
sg28
Nsg29
Nsg30
g22
sba.