(lp0
(ianalysis.analysis
Analysis
p1
(dp2
S'status'
p3
S'finished'
p4
sS'category'
p5
S'pre-ev'
p6
sS'candidateScList'
p7
(lp8
sS'computationParameters'
p9
S'a:pl'
p10
sS'histParamsFixed'
p11
NsS'aParams'
p12
NsS'logreg'
p13
NsS'sumStatsConfDico'
p14
(dp15
sS'condTxtList'
p16
(lp17
sS'chosenSc'
p18
NsS'name'
p19
S'Priors'
p20
sS'mutationModelFixed'
p21
S''
p22
sS'sumStatsTHDico'
p23
(dp24
sS'fda'
p25
NsS'params'
p26
S' PCA and Locate S.S.'
p27
sS'histParamsDrawn'
p28
NsS'drawn'
p29
NsS'mutationModelDrawn'
p30
g22
sba(ianalysis.analysis
Analysis
p31
(dp32
S'category'
p33
S'estimate'
p34
sS'chosenSc'
p35
NsS'name'
p36
S'Posteriors-logit'
p37
sS'fda'
p38
NsS'mutationModelFixed'
p39
g22
sS'aParams'
p40
NsS'candidateScList'
p41
(lp42
I1
asS'sumStatsTHDico'
p43
(dp44
sS'computationParameters'
p45
S's:1;n:1000000;m:10000;t:3;p:o'
p46
sS'status'
p47
S'finished'
p48
sS'histParamsFixed'
p49
NsS'params'
p50
g22
sS'histParamsDrawn'
p51
NsS'sumStatsConfDico'
p52
(dp53
sS'drawn'
p54
NsS'mutationModelDrawn'
p55
g22
sS'condTxtList'
p56
(lp57
sS'logreg'
p58
Nsba(ianalysis.analysis
Analysis
p59
(dp60
g33
S'modelChecking'
p61
sg35
Nsg36
S'CheckingModel'
p62
sg38
Nsg39
g22
sg40
S'a:pl'
p63
sg41
(lp64
I1
asg43
(dp65
I1
V   NAL_1_1       HET_1_1       VAR_1_1       MGW_1_1    
p66
ssg45
Vs:1;n:1000000;m:10000;t:3;p:ocs;v:NAL_1_1 HET_1_1 VAR_1_1 MGW_1_1;q:1000;a:pl
p67
sg47
g48
sg49
Nsg50
g22
sg51
Nsg52
(dp68
I1
(I4
S'NAL 1 \nHET 1 \nVAR 1 \nMGW 1 \n'
p69
tp70
ssg54
Nsg55
g22
sg56
(lp71
sg58
Nsba.