(lp0
(ianalysis.analysis
Analysis
p1
(dp2
S'status'
p3
S'finished'
p4
sS'chosenSc'
p5
NsS'candidateScList'
p6
(lp7
sS'computationParameters'
p8
S'a:pl'
p9
sS'histParamsFixed'
p10
NsS'aParams'
p11
NsS'logreg'
p12
NsS'sumStatsConfDico'
p13
(dp14
sS'condTxtList'
p15
(lp16
sS'category'
p17
S'pre-ev'
p18
sS'name'
p19
S'Prior100k'
p20
sS'mutationModelFixed'
p21
S''
p22
sS'sumStatsTHDico'
p23
(dp24
sS'fda'
p25
NsS'params'
p26
S' PCA and Locate S.S.'
p27
sS'histParamsDrawn'
p28
NsS'drawn'
p29
NsS'mutationModelDrawn'
p30
g22
sba(ianalysis.analysis
Analysis
p31
(dp32
g3
g4
sg5
Nsg6
(lp33
I1
asg8
S's:1;n:100000;m:1000;t:3;p:ocs'
p34
sg10
Nsg11
Nsg12
Nsg13
(dp35
sg15
(lp36
sg17
S'estimate'
p37
sg19
S'Posterior100k'
p38
sg21
g22
sg23
(dp39
sg25
Nsg26
g22
sg28
Nsg29
Nsg30
g22
sba(ianalysis.analysis
Analysis
p40
(dp41
g3
g4
sg5
Nsg6
(lp42
I1
asg8
S's:1;n:100000;m:1000;t:3;p:ocs;v:;q:1000;a:pl'
p43
sg10
Nsg11
S'a:pl'
p44
sg12
Nsg13
(dp45
sg15
(lp46
sg17
S'modelChecking'
p47
sg19
S'PosteriorPCA100k'
p48
sg21
g22
sg23
(dp49
sg25
Nsg26
g22
sg28
Nsg29
Nsg30
g22
sba(ianalysis.analysis
Analysis
p50
(dp51
g3
g4
sg5
Nsg6
(lp52
sg8
S'a:pl'
p53
sg10
Nsg11
Nsg12
Nsg13
(dp54
sg15
(lp55
sg17
g18
sg19
S'Prior1M'
p56
sg21
g22
sg23
(dp57
sg25
Nsg26
S' PCA and Locate S.S.'
p58
sg28
Nsg29
Nsg30
g22
sba(ianalysis.analysis
Analysis
p59
(dp60
g3
g4
sg5
Nsg6
(lp61
I1
asg8
S's:1;n:1000000;m:10000;t:3;p:ocs'
p62
sg10
Nsg11
Nsg12
Nsg13
(dp63
sg15
(lp64
sg17
g37
sg19
S'Posterior1M'
p65
sg21
g22
sg23
(dp66
sg25
Nsg26
g22
sg28
Nsg29
Nsg30
g22
sba(ianalysis.analysis
Analysis
p67
(dp68
g3
g4
sg5
Nsg6
(lp69
I1
asg8
S's:1;n:1000000;m:10000;t:3;p:ocs;v:;q:1000;a:pl'
p70
sg10
Nsg11
S'a:pl'
p71
sg12
Nsg13
(dp72
sg15
(lp73
sg17
g47
sg19
S'PosteriorPCA1M'
p74
sg21
g22
sg23
(dp75
sg25
Nsg26
g22
sg28
Nsg29
Nsg30
g22
sba.