(lp0
(ianalysis.analysis
Analysis
p1
(dp2
S'category'
p3
S'pre-ev'
p4
sS'chosenSc'
p5
NsS'name'
p6
S'Prior100K'
p7
sS'fda'
p8
NsS'mutationModelFixed'
p9
S''
p10
sS'aParams'
p11
NsS'candidateScList'
p12
(lp13
sS'sumStatsTHDico'
p14
(dp15
sS'computationParameters'
p16
S'a:pl'
p17
sS'status'
p18
S'finished'
p19
sS'histParamsFixed'
p20
NsS'params'
p21
S' PCA and Locate S.S.'
p22
sS'histParamsDrawn'
p23
NsS'sumStatsConfDico'
p24
(dp25
sS'drawn'
p26
NsS'mutationModelDrawn'
p27
g10
sS'condTxtList'
p28
(lp29
sS'logreg'
p30
Nsba(ianalysis.analysis
Analysis
p31
(dp32
g3
S'estimate'
p33
sg5
Nsg6
S'Posterior100K'
p34
sg8
Nsg9
g10
sg11
Nsg12
(lp35
I1
asg14
(dp36
sg16
S's:1;n:100000;m:1000;t:3;p:ocs'
p37
sg18
g19
sg20
Nsg21
g10
sg23
Nsg24
(dp38
sg26
Nsg27
g10
sg28
(lp39
sg30
Nsba(ianalysis.analysis
Analysis
p40
(dp41
g3
S'modelChecking'
p42
sg5
Nsg6
S'PosteriorPCA'
p43
sg8
Nsg9
g10
sg11
S'a:pl'
p44
sg12
(lp45
I1
asg14
(dp46
sg16
S's:1;n:100000;m:1000;t:3;p:ocs;v:;q:1000;a:pl'
p47
sg18
g19
sg20
Nsg21
g10
sg23
Nsg24
(dp48
sg26
Nsg27
g10
sg28
(lp49
sg30
Nsba(ianalysis.analysis
Analysis
p50
(dp51
g3
g4
sg5
Nsg6
S'Prior1M'
p52
sg8
Nsg9
g10
sg11
Nsg12
(lp53
sg14
(dp54
sg16
S'a:pl'
p55
sg18
g19
sg20
Nsg21
S' PCA and Locate S.S.'
p56
sg23
Nsg24
(dp57
sg26
Nsg27
g10
sg28
(lp58
sg30
Nsba(ianalysis.analysis
Analysis
p59
(dp60
g3
g33
sg5
Nsg6
S'Posterior1M'
p61
sg8
Nsg9
g10
sg11
Nsg12
(lp62
I1
asg14
(dp63
sg16
S's:1;n:1000000;m:10000;t:3;p:ocs'
p64
sg18
g19
sg20
Nsg21
g10
sg23
Nsg24
(dp65
sg26
Nsg27
g10
sg28
(lp66
sg30
Nsba(ianalysis.analysis
Analysis
p67
(dp68
g3
g42
sg5
Nsg6
S'PosteriorPCA1M'
p69
sg8
Nsg9
g10
sg11
S'a:pl'
p70
sg12
(lp71
I1
asg14
(dp72
sg16
S's:1;n:1000000;m:10000;t:3;p:ocs;v:;q:1000;a:pl'
p73
sg18
g19
sg20
Nsg21
g10
sg23
Nsg24
(dp74
sg26
Nsg27
g10
sg28
(lp75
sg30
Nsba.